target datalayout = "e-m:e-p270:32:32-p271:32:32-p272:64:64-i64:64-i128:128-f80:128-n8:16:32:64-S128"
target triple = "x86_64-pc-linux-gnu"

%"struct.std::atomic" = type { %"struct.std::__atomic_base" }
%"struct.std::__atomic_base" = type { i32 }
%"class.pxrInternal_v0_24__pxrReserved__::UsdAttribute" = type { %"class.pxrInternal_v0_24__pxrReserved__::UsdProperty" }
%"class.pxrInternal_v0_24__pxrReserved__::UsdProperty" = type { %"class.pxrInternal_v0_24__pxrReserved__::UsdObject" }
%"class.pxrInternal_v0_24__pxrReserved__::UsdObject" = type { i32, %"class.pxrInternal_v0_24__pxrReserved__::Usd_PrimDataHandle", %"class.pxrInternal_v0_24__pxrReserved__::SdfPath", %"class.pxrInternal_v0_24__pxrReserved__::TfToken" }
%"class.pxrInternal_v0_24__pxrReserved__::Usd_PrimDataHandle" = type { %"class.pxrInternal_v0_24__pxrReserved__::TfDelegatedCountPtr" }
%"class.pxrInternal_v0_24__pxrReserved__::TfDelegatedCountPtr" = type { ptr }
%"class.pxrInternal_v0_24__pxrReserved__::SdfPath" = type { %"struct.pxrInternal_v0_24__pxrReserved__::Sdf_PathNodeHandleImpl", %"struct.pxrInternal_v0_24__pxrReserved__::Sdf_PathNodeHandleImpl.0" }
%"struct.pxrInternal_v0_24__pxrReserved__::Sdf_PathNodeHandleImpl" = type { %"struct.pxrInternal_v0_24__pxrReserved__::Sdf_Pool<pxrInternal_v0_24__pxrReserved__::Sdf_PathPrimTag, 24, 8>::Handle" }
%"struct.pxrInternal_v0_24__pxrReserved__::Sdf_Pool<pxrInternal_v0_24__pxrReserved__::Sdf_PathPrimTag, 24, 8>::Handle" = type { i32 }
%"struct.pxrInternal_v0_24__pxrReserved__::Sdf_PathNodeHandleImpl.0" = type { %"struct.pxrInternal_v0_24__pxrReserved__::Sdf_Pool<pxrInternal_v0_24__pxrReserved__::Sdf_PathPropTag, 24, 8>::Handle" }
%"struct.pxrInternal_v0_24__pxrReserved__::Sdf_Pool<pxrInternal_v0_24__pxrReserved__::Sdf_PathPropTag, 24, 8>::Handle" = type { i32 }
%"class.pxrInternal_v0_24__pxrReserved__::TfToken" = type { %"class.pxrInternal_v0_24__pxrReserved__::TfPointerAndBits" }
%"class.pxrInternal_v0_24__pxrReserved__::TfPointerAndBits" = type { ptr }
%"class.pxrInternal_v0_24__pxrReserved__::TfCallContext" = type <{ ptr, ptr, i64, ptr, i8, [7 x i8] }>
%"class.pxrInternal_v0_24__pxrReserved__::UsdTimeCode" = type { double }
%"class.pxrInternal_v0_24__pxrReserved__::UsdSkel_SkelAnimationQueryImpl" = type { %"class.pxrInternal_v0_24__pxrReserved__::UsdSkel_AnimQueryImpl", %"class.pxrInternal_v0_24__pxrReserved__::UsdSkelAnimation", %"class.pxrInternal_v0_24__pxrReserved__::UsdAttributeQuery", %"class.pxrInternal_v0_24__pxrReserved__::UsdAttributeQuery", %"class.pxrInternal_v0_24__pxrReserved__::UsdAttributeQuery", %"class.pxrInternal_v0_24__pxrReserved__::UsdAttributeQuery" }
%"class.pxrInternal_v0_24__pxrReserved__::UsdSkel_AnimQueryImpl" = type { %"class.pxrInternal_v0_24__pxrReserved__::TfRefBase.base", %"class.pxrInternal_v0_24__pxrReserved__::VtArray", %"class.pxrInternal_v0_24__pxrReserved__::VtArray" }
%"class.pxrInternal_v0_24__pxrReserved__::TfRefBase.base" = type <{ ptr, %"struct.std::atomic" }>
%"class.pxrInternal_v0_24__pxrReserved__::VtArray" = type { %"class.pxrInternal_v0_24__pxrReserved__::Vt_ArrayBase", ptr }
%"class.pxrInternal_v0_24__pxrReserved__::Vt_ArrayBase" = type { %"struct.pxrInternal_v0_24__pxrReserved__::Vt_ShapeData", ptr }
%"struct.pxrInternal_v0_24__pxrReserved__::Vt_ShapeData" = type { i64, [3 x i32] }
%"class.pxrInternal_v0_24__pxrReserved__::UsdSkelAnimation" = type { %"class.pxrInternal_v0_24__pxrReserved__::UsdTyped" }
%"class.pxrInternal_v0_24__pxrReserved__::UsdTyped" = type { %"class.pxrInternal_v0_24__pxrReserved__::UsdSchemaBase" }
%"class.pxrInternal_v0_24__pxrReserved__::UsdSchemaBase" = type { ptr, %"class.pxrInternal_v0_24__pxrReserved__::Usd_PrimDataHandle", %"class.pxrInternal_v0_24__pxrReserved__::SdfPath" }
%"class.pxrInternal_v0_24__pxrReserved__::UsdAttributeQuery" = type { %"class.pxrInternal_v0_24__pxrReserved__::UsdAttribute", %"class.pxrInternal_v0_24__pxrReserved__::UsdResolveInfo", %"class.std::unique_ptr" }
%"class.pxrInternal_v0_24__pxrReserved__::UsdResolveInfo" = type <{ %"class.pxrInternal_v0_24__pxrReserved__::TfWeakPtr", %"class.pxrInternal_v0_24__pxrReserved__::TfWeakPtr.1", %"class.pxrInternal_v0_24__pxrReserved__::PcpNodeRef", %"class.pxrInternal_v0_24__pxrReserved__::SdfLayerOffset", %"class.pxrInternal_v0_24__pxrReserved__::SdfPath", i32, i8, [3 x i8] }>
%"class.pxrInternal_v0_24__pxrReserved__::TfWeakPtr" = type { ptr, %"class.pxrInternal_v0_24__pxrReserved__::TfRefPtr" }
%"class.pxrInternal_v0_24__pxrReserved__::TfRefPtr" = type { ptr }
%"class.pxrInternal_v0_24__pxrReserved__::TfWeakPtr.1" = type { ptr, %"class.pxrInternal_v0_24__pxrReserved__::TfRefPtr" }
%"class.pxrInternal_v0_24__pxrReserved__::PcpNodeRef" = type { ptr, i64 }
%"class.pxrInternal_v0_24__pxrReserved__::SdfLayerOffset" = type { double, double }
%"class.std::unique_ptr" = type { %"struct.std::__uniq_ptr_data" }
%"struct.std::__uniq_ptr_data" = type { %"class.std::__uniq_ptr_impl" }
%"class.std::__uniq_ptr_impl" = type { %"class.std::tuple" }
%"class.std::tuple" = type { %"struct.std::_Tuple_impl" }
%"struct.std::_Tuple_impl" = type { %"struct.std::_Head_base.4" }
%"struct.std::_Head_base.4" = type { ptr }
%"class.pxrInternal_v0_24__pxrReserved__::Usd_PrimData" = type { ptr, ptr, %"class.pxrInternal_v0_24__pxrReserved__::SdfPath", ptr, ptr, %"class.pxrInternal_v0_24__pxrReserved__::TfPointerAndBits.21", %"struct.std::atomic.22", %"class.std::bitset" }
%"class.pxrInternal_v0_24__pxrReserved__::TfPointerAndBits.21" = type { ptr }
%"struct.std::atomic.22" = type { %"struct.std::__atomic_base.23" }
%"struct.std::__atomic_base.23" = type { i64 }
%"class.std::bitset" = type { %"struct.std::_Base_bitset" }
%"struct.std::_Base_bitset" = type { i64 }

@.str = private unnamed_addr constant [127 x i8] c"generated/home/dtcxzyw/WorkSpace/Projects/compilers/llvm-opt-benchmark/bench/openusd/OpenUSD/pxr/usd/usdSkel/animQueryImpl.cpp\00", align 1
@__func__._ZNK32pxrInternal_v0_24__pxrReserved__30UsdSkel_SkelAnimationQueryImpl24ComputeBlendShapeWeightsEPNS_7VtArrayIfEENS_11UsdTimeCodeE = private unnamed_addr constant [25 x i8] c"ComputeBlendShapeWeights\00", align 1
@.str.4 = private unnamed_addr constant [6 x i8] c"_anim\00", align 1
@.str.5 = private unnamed_addr constant [47 x i8] c"PackedJointAnimation schema object is invalid.\00", align 1

; Function Attrs: mustprogress nounwind uwtable
define linkonce_odr noundef i64 @_ZNSt12_Base_bitsetILm1EE11_S_whichbitEm(i64 noundef %0) #2 comdat align 2 {
  %2 = alloca i64, align 8
  store i64 %0, ptr %2, align 8
  %3 = load i64, ptr %2, align 8
  %4 = urem i64 %3, 64
  ret i64 %4
}

; Function Attrs: mustprogress nounwind uwtable
define linkonce_odr noundef i64 @_ZNSt12_Base_bitsetILm1EE10_S_maskbitEm(i64 noundef %0) #2 comdat align 2 {
  %2 = alloca i64, align 8
  store i64 %0, ptr %2, align 8
  %3 = load i64, ptr %2, align 8
  %4 = call noundef i64 @_ZNSt12_Base_bitsetILm1EE11_S_whichbitEm(i64 noundef %3) #11
  %5 = shl i64 1, %4
  ret i64 %5
}

; Function Attrs: mustprogress nounwind uwtable
define linkonce_odr noundef i64 @_ZNKSt12_Base_bitsetILm1EE10_M_getwordEm(ptr noundef nonnull align 8 dereferenceable(8) %0, i64 noundef %1) #2 comdat align 2 {
  %3 = alloca ptr, align 8
  %4 = alloca i64, align 8
  store ptr %0, ptr %3, align 8
  store i64 %1, ptr %4, align 8
  %5 = load ptr, ptr %3, align 8
  %6 = getelementptr inbounds nuw %"struct.std::_Base_bitset", ptr %5, i32 0, i32 0
  %7 = load i64, ptr %6, align 8
  ret i64 %7
}

; Function Attrs: mustprogress nounwind uwtable
define linkonce_odr noundef zeroext i1 @_ZNKSt6bitsetILm15EE15_Unchecked_testEm(ptr noundef nonnull align 8 dereferenceable(8) %0, i64 noundef %1) #2 comdat align 2 {
  %3 = alloca ptr, align 8
  %4 = alloca i64, align 8
  store ptr %0, ptr %3, align 8
  store i64 %1, ptr %4, align 8
  %5 = load ptr, ptr %3, align 8
  %6 = load i64, ptr %4, align 8
  %7 = call noundef i64 @_ZNKSt12_Base_bitsetILm1EE10_M_getwordEm(ptr noundef nonnull align 8 dereferenceable(8) %5, i64 noundef %6) #11
  %8 = load i64, ptr %4, align 8
  %9 = call noundef i64 @_ZNSt12_Base_bitsetILm1EE10_S_maskbitEm(i64 noundef %8) #11
  %10 = and i64 %7, %9
  %11 = icmp ne i64 %10, 0
  ret i1 %11
}

; Function Attrs: mustprogress nounwind uwtable
define linkonce_odr noundef zeroext i1 @_ZNKSt6bitsetILm15EEixEm(ptr noundef nonnull align 8 dereferenceable(8) %0, i64 noundef %1) #2 comdat align 2 {
  %3 = alloca ptr, align 8
  %4 = alloca i64, align 8
  store ptr %0, ptr %3, align 8
  store i64 %1, ptr %4, align 8
  %5 = load ptr, ptr %3, align 8
  %6 = load i64, ptr %4, align 8
  %7 = call noundef zeroext i1 @_ZNKSt6bitsetILm15EE15_Unchecked_testEm(ptr noundef nonnull align 8 dereferenceable(8) %5, i64 noundef %6) #11
  ret i1 %7
}

; Function Attrs: mustprogress uwtable
define linkonce_odr noundef zeroext i1 @_ZNK32pxrInternal_v0_24__pxrReserved__12Usd_PrimData7_IsDeadEv(ptr noundef nonnull align 8 dereferenceable(64) %0) #0 comdat align 2 {
  %2 = alloca ptr, align 8
  store ptr %0, ptr %2, align 8
  %3 = load ptr, ptr %2, align 8
  %4 = getelementptr inbounds nuw %"class.pxrInternal_v0_24__pxrReserved__::Usd_PrimData", ptr %3, i32 0, i32 7
  %5 = call noundef zeroext i1 @_ZNKSt6bitsetILm15EEixEm(ptr noundef nonnull align 8 dereferenceable(8) %4, i64 noundef 11)
  ret i1 %5
}

; Function Attrs: mustprogress uwtable
define linkonce_odr noundef zeroext i1 @_ZN32pxrInternal_v0_24__pxrReserved__10Usd_IsDeadEPKNS_12Usd_PrimDataE(ptr noundef %0) #0 comdat {
  %2 = alloca ptr, align 8
  store ptr %0, ptr %2, align 8
  %3 = load ptr, ptr %2, align 8
  %4 = call noundef zeroext i1 @_ZNK32pxrInternal_v0_24__pxrReserved__12Usd_PrimData7_IsDeadEv(ptr noundef nonnull align 8 dereferenceable(64) %3)
  ret i1 %4
}

; Function Attrs: mustprogress nounwind uwtable
define linkonce_odr noundef ptr @_ZNK32pxrInternal_v0_24__pxrReserved__19TfDelegatedCountPtrIKNS_12Usd_PrimDataEE3getEv(ptr noundef nonnull align 8 dereferenceable(8) %0) #2 comdat align 2 {
  %2 = alloca ptr, align 8
  store ptr %0, ptr %2, align 8
  %3 = load ptr, ptr %2, align 8
  %4 = getelementptr inbounds nuw %"class.pxrInternal_v0_24__pxrReserved__::TfDelegatedCountPtr", ptr %3, i32 0, i32 0
  %5 = load ptr, ptr %4, align 8
  ret ptr %5
}

; Function Attrs: mustprogress uwtable
define linkonce_odr noundef zeroext i1 @_ZNK32pxrInternal_v0_24__pxrReserved__18Usd_PrimDataHandlecvbEv(ptr noundef nonnull align 8 dereferenceable(8) %0) #0 comdat align 2 {
  %2 = alloca ptr, align 8
  %3 = alloca ptr, align 8
  store ptr %0, ptr %2, align 8
  %4 = load ptr, ptr %2, align 8
  %5 = getelementptr inbounds nuw %"class.pxrInternal_v0_24__pxrReserved__::Usd_PrimDataHandle", ptr %4, i32 0, i32 0
  %6 = call noundef ptr @_ZNK32pxrInternal_v0_24__pxrReserved__19TfDelegatedCountPtrIKNS_12Usd_PrimDataEE3getEv(ptr noundef nonnull align 8 dereferenceable(8) %5) #11
  store ptr %6, ptr %3, align 8
  %7 = load ptr, ptr %3, align 8
  %8 = icmp ne ptr %7, null
  br i1 %8, label %9, label %13

9:                                                ; preds = %1
  %10 = load ptr, ptr %3, align 8
  %11 = call noundef zeroext i1 @_ZN32pxrInternal_v0_24__pxrReserved__10Usd_IsDeadEPKNS_12Usd_PrimDataE(ptr noundef %10)
  %12 = xor i1 %11, true
  br label %13

13:                                               ; preds = %9, %1
  %14 = phi i1 [ false, %1 ], [ %12, %9 ]
  ret i1 %14
}

; Function Attrs: mustprogress uwtable
define linkonce_odr noundef zeroext i1 @_ZNK32pxrInternal_v0_24__pxrReserved__17UsdAttributeQuery3GetINS_7VtArrayIfEEEEbPT_NS_11UsdTimeCodeE(ptr noundef nonnull align 8 dereferenceable(120) %0, ptr noundef %1, double %2) #0 comdat align 2 {
  %4 = alloca %"class.pxrInternal_v0_24__pxrReserved__::UsdTimeCode", align 8
  %5 = alloca ptr, align 8
  %6 = alloca ptr, align 8
  %7 = alloca %"class.pxrInternal_v0_24__pxrReserved__::UsdTimeCode", align 8
  %8 = getelementptr inbounds nuw %"class.pxrInternal_v0_24__pxrReserved__::UsdTimeCode", ptr %4, i32 0, i32 0
  store double %2, ptr %8, align 8
  store ptr %0, ptr %5, align 8
  store ptr %1, ptr %6, align 8
  %9 = load ptr, ptr %5, align 8
  %10 = load ptr, ptr %6, align 8
  call void @llvm.memcpy.p0.p0.i64(ptr align 8 %7, ptr align 8 %4, i64 8, i1 false)
  %11 = getelementptr inbounds nuw %"class.pxrInternal_v0_24__pxrReserved__::UsdTimeCode", ptr %7, i32 0, i32 0
  %12 = load double, ptr %11, align 8
  %13 = call noundef zeroext i1 @_ZNK32pxrInternal_v0_24__pxrReserved__17UsdAttributeQuery4_GetINS_7VtArrayIfEEEEbPT_NS_11UsdTimeCodeE(ptr noundef nonnull align 8 dereferenceable(120) %9, ptr noundef %10, double %12)
  ret i1 %13
}

; Function Attrs: mustprogress nounwind uwtable
define linkonce_odr void @_ZN32pxrInternal_v0_24__pxrReserved__13TfCallContextC2EPKcS2_mS2_(ptr noundef nonnull align 8 dereferenceable(33) %0, ptr noundef %1, ptr noundef %2, i64 noundef %3, ptr noundef %4) unnamed_addr #2 comdat align 2 {
  %6 = alloca ptr, align 8
  %7 = alloca ptr, align 8
  %8 = alloca ptr, align 8
  %9 = alloca i64, align 8
  %10 = alloca ptr, align 8
  store ptr %0, ptr %6, align 8
  store ptr %1, ptr %7, align 8
  store ptr %2, ptr %8, align 8
  store i64 %3, ptr %9, align 8
  store ptr %4, ptr %10, align 8
  %11 = load ptr, ptr %6, align 8
  %12 = getelementptr inbounds nuw %"class.pxrInternal_v0_24__pxrReserved__::TfCallContext", ptr %11, i32 0, i32 0
  %13 = load ptr, ptr %7, align 8
  store ptr %13, ptr %12, align 8
  %14 = getelementptr inbounds nuw %"class.pxrInternal_v0_24__pxrReserved__::TfCallContext", ptr %11, i32 0, i32 1
  %15 = load ptr, ptr %8, align 8
  store ptr %15, ptr %14, align 8
  %16 = getelementptr inbounds nuw %"class.pxrInternal_v0_24__pxrReserved__::TfCallContext", ptr %11, i32 0, i32 2
  %17 = load i64, ptr %9, align 8
  store i64 %17, ptr %16, align 8
  %18 = getelementptr inbounds nuw %"class.pxrInternal_v0_24__pxrReserved__::TfCallContext", ptr %11, i32 0, i32 3
  %19 = load ptr, ptr %10, align 8
  store ptr %19, ptr %18, align 8
  %20 = getelementptr inbounds nuw %"class.pxrInternal_v0_24__pxrReserved__::TfCallContext", ptr %11, i32 0, i32 4
  store i8 0, ptr %20, align 8
  ret void
}

; Function Attrs: mustprogress uwtable
define linkonce_odr noundef zeroext i1 @_ZNK32pxrInternal_v0_24__pxrReserved__13UsdSchemaBasecvbEv(ptr noundef nonnull align 8 dereferenceable(24) %0) #0 comdat align 2 {
  %2 = alloca ptr, align 8
  store ptr %0, ptr %2, align 8
  %3 = load ptr, ptr %2, align 8
  %4 = getelementptr inbounds nuw %"class.pxrInternal_v0_24__pxrReserved__::UsdSchemaBase", ptr %3, i32 0, i32 1
  %5 = call noundef zeroext i1 @_ZNK32pxrInternal_v0_24__pxrReserved__18Usd_PrimDataHandlecvbEv(ptr noundef nonnull align 8 dereferenceable(8) %4)
  br i1 %5, label %6, label %11

6:                                                ; preds = %1
  %7 = load ptr, ptr %3, align 8
  %8 = getelementptr inbounds ptr, ptr %7, i64 4
  %9 = load ptr, ptr %8, align 8
  %10 = call noundef zeroext i1 %9(ptr noundef nonnull align 8 dereferenceable(24) %3)
  br label %11

11:                                               ; preds = %6, %1
  %12 = phi i1 [ false, %1 ], [ %10, %6 ]
  ret i1 %12
}

; Function Attrs: mustprogress uwtable
define noundef zeroext i1 @_ZNK32pxrInternal_v0_24__pxrReserved__30UsdSkel_SkelAnimationQueryImpl24ComputeBlendShapeWeightsEPNS_7VtArrayIfEENS_11UsdTimeCodeE(ptr noundef nonnull align 8 dereferenceable(600) %0, ptr noundef %1, double %2) unnamed_addr #0 align 2 {
  %4 = alloca i1, align 1
  %5 = alloca %"class.pxrInternal_v0_24__pxrReserved__::UsdTimeCode", align 8
  %6 = alloca ptr, align 8
  %7 = alloca ptr, align 8
  %8 = alloca %"class.pxrInternal_v0_24__pxrReserved__::TfCallContext", align 8
  %9 = alloca %"class.pxrInternal_v0_24__pxrReserved__::UsdTimeCode", align 8
  %10 = getelementptr inbounds nuw %"class.pxrInternal_v0_24__pxrReserved__::UsdTimeCode", ptr %5, i32 0, i32 0
  store double %2, ptr %10, align 8
  store ptr %0, ptr %6, align 8
  store ptr %1, ptr %7, align 8
  %11 = load ptr, ptr %6, align 8
  %12 = getelementptr inbounds nuw %"class.pxrInternal_v0_24__pxrReserved__::UsdSkel_SkelAnimationQueryImpl", ptr %11, i32 0, i32 1
  %13 = call noundef zeroext i1 @_ZNK32pxrInternal_v0_24__pxrReserved__13UsdSchemaBasecvbEv(ptr noundef nonnull align 8 dereferenceable(24) %12)
  br i1 %13, label %14, label %15

14:                                               ; preds = %3
  br label %18

15:                                               ; preds = %3
  call void @_ZN32pxrInternal_v0_24__pxrReserved__13TfCallContextC2EPKcS2_mS2_(ptr noundef nonnull align 8 dereferenceable(33) %8, ptr noundef @.str, ptr noundef @__func__._ZNK32pxrInternal_v0_24__pxrReserved__30UsdSkel_SkelAnimationQueryImpl24ComputeBlendShapeWeightsEPNS_7VtArrayIfEENS_11UsdTimeCodeE, i64 noundef 202, ptr noundef @__PRETTY_FUNCTION__._ZNK32pxrInternal_v0_24__pxrReserved__30UsdSkel_SkelAnimationQueryImpl24ComputeBlendShapeWeightsEPNS_7VtArrayIfEENS_11UsdTimeCodeE)
  %16 = call noundef ptr (ptr, ...) @_ZN32pxrInternal_v0_24__pxrReserved__21Tf_VerifyStringFormatEPKcz(ptr noundef @.str.5)
  %17 = call noundef zeroext i1 @_ZN32pxrInternal_v0_24__pxrReserved__21Tf_FailedVerifyHelperERKNS_13TfCallContextEPKcS4_(ptr noundef nonnull align 8 dereferenceable(33) %8, ptr noundef @.str.4, ptr noundef %16)
  br label %18

18:                                               ; preds = %15, %14
  %19 = phi i1 [ true, %14 ], [ %17, %15 ]
  br i1 %19, label %20, label %26

20:                                               ; preds = %18
  %21 = getelementptr inbounds nuw %"class.pxrInternal_v0_24__pxrReserved__::UsdSkel_SkelAnimationQueryImpl", ptr %11, i32 0, i32 5
  %22 = load ptr, ptr %7, align 8
  call void @llvm.memcpy.p0.p0.i64(ptr align 8 %9, ptr align 8 %5, i64 8, i1 false)
  %23 = getelementptr inbounds nuw %"class.pxrInternal_v0_24__pxrReserved__::UsdTimeCode", ptr %9, i32 0, i32 0
  %24 = load double, ptr %23, align 8
  %25 = call noundef zeroext i1 @_ZNK32pxrInternal_v0_24__pxrReserved__17UsdAttributeQuery3GetINS_7VtArrayIfEEEEbPT_NS_11UsdTimeCodeE(ptr noundef nonnull align 8 dereferenceable(120) %21, ptr noundef %22, double %24)
  store i1 %25, ptr %4, align 1
  br label %27

26:                                               ; preds = %18
  store i1 false, ptr %4, align 1
  br label %27

27:                                               ; preds = %26, %20
  %28 = load i1, ptr %4, align 1
  ret i1 %28
}