; Function Attrs: mustprogress uwtable
define noundef zeroext i1 @_ZNK32pxrInternal_v0_24__pxrReserved__30UsdSkel_SkelAnimationQueryImpl24ComputeBlendShapeWeightsEPNS_7VtArrayIfEENS_11UsdTimeCodeE(ptr noundef nonnull align 8 dereferenceable(600) %0, ptr noundef %1, double %2) unnamed_addr #0 align 2 {
  %4 = alloca %"class.pxrInternal_v0_24__pxrReserved__::TfCallContext", align 8
  %5 = getelementptr inbounds nuw i8, ptr %0, i64 96
  %6 = getelementptr inbounds nuw i8, ptr %0, i64 104
  %7 = load ptr, ptr %6, align 8
  %.not.i.i = icmp eq ptr %7, null
  br i1 %.not.i.i, label %_ZNK32pxrInternal_v0_24__pxrReserved__13UsdSchemaBasecvbEv.exit.thread, label %_ZNK32pxrInternal_v0_24__pxrReserved__18Usd_PrimDataHandlecvbEv.exit.i

_ZNK32pxrInternal_v0_24__pxrReserved__18Usd_PrimDataHandlecvbEv.exit.i: ; preds = %3
  %8 = getelementptr inbounds nuw i8, ptr %7, i64 56
  %9 = load i64, ptr %8, align 8
  %10 = and i64 %9, 2048
  %.not3.i.i = icmp eq i64 %10, 0
  br i1 %.not3.i.i, label %_ZNK32pxrInternal_v0_24__pxrReserved__13UsdSchemaBasecvbEv.exit, label %_ZNK32pxrInternal_v0_24__pxrReserved__13UsdSchemaBasecvbEv.exit.thread

_ZNK32pxrInternal_v0_24__pxrReserved__13UsdSchemaBasecvbEv.exit: ; preds = %_ZNK32pxrInternal_v0_24__pxrReserved__18Usd_PrimDataHandlecvbEv.exit.i
  %11 = load ptr, ptr %5, align 8
  %12 = getelementptr inbounds nuw i8, ptr %11, i64 32
  %13 = load ptr, ptr %12, align 8
  %14 = tail call noundef zeroext i1 %13(ptr noundef nonnull align 8 dereferenceable(24) %5)
  br i1 %14, label %.critedge, label %_ZNK32pxrInternal_v0_24__pxrReserved__13UsdSchemaBasecvbEv.exit.thread

_ZNK32pxrInternal_v0_24__pxrReserved__13UsdSchemaBasecvbEv.exit.thread: ; preds = %3, %_ZNK32pxrInternal_v0_24__pxrReserved__18Usd_PrimDataHandlecvbEv.exit.i, %_ZNK32pxrInternal_v0_24__pxrReserved__13UsdSchemaBasecvbEv.exit
  store ptr @.str, ptr %4, align 8
  %15 = getelementptr inbounds nuw i8, ptr %4, i64 8
  store ptr @__func__._ZNK32pxrInternal_v0_24__pxrReserved__30UsdSkel_SkelAnimationQueryImpl24ComputeBlendShapeWeightsEPNS_7VtArrayIfEENS_11UsdTimeCodeE, ptr %15, align 8
  %16 = getelementptr inbounds nuw i8, ptr %4, i64 16
  store i64 202, ptr %16, align 8
  %17 = getelementptr inbounds nuw i8, ptr %4, i64 24
  store ptr @__PRETTY_FUNCTION__._ZNK32pxrInternal_v0_24__pxrReserved__30UsdSkel_SkelAnimationQueryImpl24ComputeBlendShapeWeightsEPNS_7VtArrayIfEENS_11UsdTimeCodeE, ptr %17, align 8
  %18 = getelementptr inbounds nuw i8, ptr %4, i64 32
  store i8 0, ptr %18, align 8
  %19 = tail call noundef ptr (ptr, ...) @_ZN32pxrInternal_v0_24__pxrReserved__21Tf_VerifyStringFormatEPKcz(ptr noundef nonnull @.str.5)
  %20 = call noundef zeroext i1 @_ZN32pxrInternal_v0_24__pxrReserved__21Tf_FailedVerifyHelperERKNS_13TfCallContextEPKcS4_(ptr noundef nonnull align 8 dereferenceable(33) %4, ptr noundef nonnull @.str.4, ptr noundef %19)
  br i1 %20, label %.critedge, label %23

.critedge:                                        ; preds = %_ZNK32pxrInternal_v0_24__pxrReserved__13UsdSchemaBasecvbEv.exit, %_ZNK32pxrInternal_v0_24__pxrReserved__13UsdSchemaBasecvbEv.exit.thread
  %21 = getelementptr inbounds nuw i8, ptr %0, i64 480
  %22 = call noundef zeroext i1 @_ZNK32pxrInternal_v0_24__pxrReserved__17UsdAttributeQuery4_GetINS_7VtArrayIfEEEEbPT_NS_11UsdTimeCodeE(ptr noundef nonnull align 8 dereferenceable(120) %21, ptr noundef %1, double %2)
  br label %23

23:                                               ; preds = %_ZNK32pxrInternal_v0_24__pxrReserved__13UsdSchemaBasecvbEv.exit.thread, %.critedge
  %.0 = phi i1 [ %22, %.critedge ], [ false, %_ZNK32pxrInternal_v0_24__pxrReserved__13UsdSchemaBasecvbEv.exit.thread ]
  ret i1 %.0
}